; Function Attrs: nofree norecurse nosync nounwind memory(readwrite, inaccessiblemem: none) uwtable
define internal void @SDL_Blit_BGRA8888_ARGB8888_Modulate(ptr noundef captures(none) %0) #0 {
  %2 = getelementptr inbounds nuw i8, ptr %0, i64 112
  %3 = load i32, ptr %2, align 8
  %4 = getelementptr inbounds nuw i8, ptr %0, i64 120
  %5 = load i8, ptr %4, align 8
  %6 = zext i8 %5 to i32
  %7 = getelementptr inbounds nuw i8, ptr %0, i64 121
  %8 = load i8, ptr %7, align 1
  %9 = zext i8 %8 to i32
  %10 = getelementptr inbounds nuw i8, ptr %0, i64 122
  %11 = load i8, ptr %10, align 2
  %12 = zext i8 %11 to i32
  %13 = getelementptr inbounds nuw i8, ptr %0, i64 123
  %14 = load i8, ptr %13, align 1
  %15 = zext i8 %14 to i32
  %16 = getelementptr inbounds nuw i8, ptr %0, i64 52
  %17 = load i32, ptr %16, align 4
  %18 = add nsw i32 %17, -1
  store i32 %18, ptr %16, align 4
  %.not64 = icmp eq i32 %17, 0
  br i1 %.not64, label %._crit_edge67, label %.lr.ph66

.lr.ph66:                                         ; preds = %1
  %19 = getelementptr inbounds nuw i8, ptr %0, i64 8
  %20 = getelementptr inbounds nuw i8, ptr %0, i64 40
  %21 = getelementptr inbounds nuw i8, ptr %0, i64 48
  %22 = and i32 %3, 1
  %.not59 = icmp eq i32 %22, 0
  %23 = and i32 %3, 2
  %.not60 = icmp eq i32 %23, 0
  %24 = getelementptr inbounds nuw i8, ptr %0, i64 24
  %25 = getelementptr inbounds nuw i8, ptr %0, i64 56
  %26 = load i32, ptr %21, align 8
  %27 = icmp eq i32 %26, 0
  br i1 %27, label %.lr.ph66.split.us, label %.lr.ph66.split.preheader

.lr.ph66.split.preheader:                         ; preds = %.lr.ph66
  %.pre = load ptr, ptr %19, align 8
  %.pre77 = load ptr, ptr %20, align 8
  br label %.lr.ph66.split

.lr.ph66.split.us:                                ; preds = %.lr.ph66
  %28 = load i32, ptr %24, align 8
  %29 = sext i32 %28 to i64
  %30 = load i32, ptr %25, align 8
  %31 = sext i32 %30 to i64
  %.promoted = load ptr, ptr %19, align 8
  %.promoted68 = load ptr, ptr %20, align 8
  %32 = zext i32 %17 to i64
  %33 = mul nsw i64 %32, %29
  %scevgep = getelementptr i8, ptr %.promoted, i64 %33
  %34 = mul nsw i64 %32, %31
  %scevgep76 = getelementptr i8, ptr %.promoted68, i64 %34
  store ptr %scevgep, ptr %19, align 8
  store ptr %scevgep76, ptr %20, align 8
  store i32 -1, ptr %16, align 4
  br label %._crit_edge67

.lr.ph66.splitthread-pre-split:                   ; preds = %._crit_edge
  %.pr = load i32, ptr %21, align 8
  br label %.lr.ph66.split

.lr.ph66.split:                                   ; preds = %.lr.ph66.splitthread-pre-split, %.lr.ph66.split.preheader
  %35 = phi i32 [ %.pr, %.lr.ph66.splitthread-pre-split ], [ %26, %.lr.ph66.split.preheader ]
  %36 = phi ptr [ %115, %.lr.ph66.splitthread-pre-split ], [ %.pre77, %.lr.ph66.split.preheader ]
  %37 = phi ptr [ %111, %.lr.ph66.splitthread-pre-split ], [ %.pre, %.lr.ph66.split.preheader ]
  %38 = add nsw i32 %35, -1
  %.not5861 = icmp eq i32 %35, 0
  br i1 %.not5861, label %._crit_edge, label %.lr.ph

.lr.ph:                                           ; preds = %.lr.ph66.split
  br i1 %.not59, label %.lr.ph.split.us, label %.lr.ph.split

.lr.ph.split.us:                                  ; preds = %.lr.ph
  br i1 %.not60, label %.lr.ph.split.us.split.us, label %.lr.ph.split.us.split

.lr.ph.split.us.split.us:                         ; preds = %.lr.ph.split.us, %.lr.ph.split.us.split.us
  %39 = phi i32 [ %44, %.lr.ph.split.us.split.us ], [ %38, %.lr.ph.split.us ]
  %.05563.us.us = phi ptr [ %43, %.lr.ph.split.us.split.us ], [ %36, %.lr.ph.split.us ]
  %.05662.us.us = phi ptr [ %42, %.lr.ph.split.us.split.us ], [ %37, %.lr.ph.split.us ]
  %40 = load i32, ptr %.05662.us.us, align 4
  %41 = tail call i32 @llvm.bswap.i32(i32 %40)
  store i32 %41, ptr %.05563.us.us, align 4
  %42 = getelementptr inbounds nuw i8, ptr %.05662.us.us, i64 4
  %43 = getelementptr inbounds nuw i8, ptr %.05563.us.us, i64 4
  %44 = add nsw i32 %39, -1
  %.not58.us.us = icmp eq i32 %39, 0
  br i1 %.not58.us.us, label %._crit_edge, label %.lr.ph.split.us.split.us, !llvm.loop !319

.lr.ph.split.us.split:                            ; preds = %.lr.ph.split.us, %.lr.ph.split.us.split
  %45 = phi i32 [ %65, %.lr.ph.split.us.split ], [ %38, %.lr.ph.split.us ]
  %.05563.us = phi ptr [ %64, %.lr.ph.split.us.split ], [ %36, %.lr.ph.split.us ]
  %.05662.us = phi ptr [ %63, %.lr.ph.split.us.split ], [ %37, %.lr.ph.split.us ]
  %46 = load i32, ptr %.05662.us, align 4
  %47 = lshr i32 %46, 24
  %48 = and i32 %46, 255
  %49 = mul nuw nsw i32 %48, %15
  %50 = add nuw nsw i32 %49, 1
  %51 = lshr i32 %50, 8
  %52 = and i32 %51, 255
  %53 = add nuw nsw i32 %52, %50
  %54 = shl nuw i32 %53, 16
  %55 = and i32 %54, -16777216
  %56 = shl i32 %46, 8
  %57 = and i32 %56, 16711680
  %58 = or disjoint i32 %55, %57
  %59 = lshr i32 %46, 8
  %60 = and i32 %59, 65280
  %61 = or disjoint i32 %58, %60
  %62 = or disjoint i32 %61, %47
  store i32 %62, ptr %.05563.us, align 4
  %63 = getelementptr inbounds nuw i8, ptr %.05662.us, i64 4
  %64 = getelementptr inbounds nuw i8, ptr %.05563.us, i64 4
  %65 = add nsw i32 %45, -1
  %.not58.us = icmp eq i32 %45, 0
  br i1 %.not58.us, label %._crit_edge, label %.lr.ph.split.us.split, !llvm.loop !319

.lr.ph.split:                                     ; preds = %.lr.ph, %97
  %66 = phi i32 [ %107, %97 ], [ %38, %.lr.ph ]
  %.05563 = phi ptr [ %106, %97 ], [ %36, %.lr.ph ]
  %.05662 = phi ptr [ %105, %97 ], [ %37, %.lr.ph ]
  %67 = load i32, ptr %.05662, align 4
  %68 = lshr i32 %67, 24
  %69 = lshr i32 %67, 16
  %70 = and i32 %69, 255
  %71 = lshr i32 %67, 8
  %72 = and i32 %71, 255
  %73 = and i32 %67, 255
  %74 = mul nuw nsw i32 %72, %6
  %75 = add nuw nsw i32 %74, 1
  %76 = mul nuw nsw i32 %70, %9
  %77 = add nuw nsw i32 %76, 1
  %78 = lshr i32 %77, 8
  %79 = and i32 %78, 255
  %80 = add nuw nsw i32 %79, %77
  %81 = and i32 %80, 65280
  %82 = mul nuw nsw i32 %68, %12
  %83 = add nuw nsw i32 %82, 1
  %84 = lshr i32 %83, 8
  %85 = and i32 %84, 255
  %86 = add nuw nsw i32 %85, %83
  %87 = lshr i32 %86, 8
  %88 = and i32 %87, 255
  br i1 %.not60, label %97, label %89

89:                                               ; preds = %.lr.ph.split
  %90 = mul nuw nsw i32 %73, %15
  %91 = add nuw nsw i32 %90, 1
  %92 = lshr i32 %91, 8
  %93 = and i32 %92, 255
  %94 = add nuw nsw i32 %93, %91
  %95 = lshr i32 %94, 8
  %96 = and i32 %95, 255
  br label %97

97:                                               ; preds = %89, %.lr.ph.split
  %.057 = phi i32 [ %96, %89 ], [ %73, %.lr.ph.split ]
  %98 = shl nuw i32 %.057, 24
  %99 = shl nuw nsw i32 %75, 8
  %.mask = and i32 %75, 65280
  %100 = add nuw nsw i32 %.mask, %99
  %101 = and i32 %100, 16711680
  %102 = or disjoint i32 %98, %101
  %103 = or disjoint i32 %102, %81
  %104 = or disjoint i32 %103, %88
  store i32 %104, ptr %.05563, align 4
  %105 = getelementptr inbounds nuw i8, ptr %.05662, i64 4
  %106 = getelementptr inbounds nuw i8, ptr %.05563, i64 4
  %107 = add nsw i32 %66, -1
  %.not58 = icmp eq i32 %66, 0
  br i1 %.not58, label %._crit_edge, label %.lr.ph.split, !llvm.loop !319

._crit_edge:                                      ; preds = %97, %.lr.ph.split.us.split, %.lr.ph.split.us.split.us, %.lr.ph66.split
  %108 = load i32, ptr %24, align 8
  %109 = load ptr, ptr %19, align 8
  %110 = sext i32 %108 to i64
  %111 = getelementptr inbounds i8, ptr %109, i64 %110
  store ptr %111, ptr %19, align 8
  %112 = load i32, ptr %25, align 8
  %113 = load ptr, ptr %20, align 8
  %114 = sext i32 %112 to i64
  %115 = getelementptr inbounds i8, ptr %113, i64 %114
  store ptr %115, ptr %20, align 8
  %116 = load i32, ptr %16, align 4
  %117 = add nsw i32 %116, -1
  store i32 %117, ptr %16, align 4
  %.not = icmp eq i32 %116, 0
  br i1 %.not, label %._crit_edge67, label %.lr.ph66.splitthread-pre-split, !llvm.loop !320

._crit_edge67:                                    ; preds = %._crit_edge, %.lr.ph66.split.us, %1
  ret void
}